target datalayout = "e-m:e-p270:32:32-p271:32:32-p272:64:64-i64:64-i128:128-f80:128-n8:16:32:64-S128"
target triple = "x86_64-pc-linux-gnu"

%struct.RelationData = type { %struct.RelFileLocator, ptr, i32, i32, i8, i8, i8, i8, i8, i32, i32, i32, i32, ptr, ptr, i32, %struct.LockInfoData, ptr, ptr, ptr, ptr, ptr, i8, ptr, ptr, ptr, ptr, ptr, ptr, i32, ptr, i8, ptr, ptr, i32, i8, i32, ptr, i8, ptr, ptr, ptr, ptr, ptr, ptr, ptr, i32, ptr, ptr, ptr, ptr, ptr, ptr, ptr, ptr, ptr, ptr, ptr, ptr, ptr, ptr, ptr, ptr, ptr, ptr, ptr, i32, i8, ptr }
%struct.RelFileLocator = type { i32, i32, i32 }
%struct.LockInfoData = type { %struct.LockRelId }
%struct.LockRelId = type { i32, i32 }
%struct.FormData_pg_class = type { i32, %struct.nameData, i32, i32, i32, i32, i32, i32, i32, i32, float, i32, i32, i8, i8, i8, i8, i16, i16, i8, i8, i8, i8, i8, i8, i8, i8, i32, i32, i32 }
%struct.nameData = type { [64 x i8] }
%struct.ForEachState = type { ptr, i32 }
%struct.List = type { i32, i32, i32, ptr, [0 x %union.ListCell] }
%union.ListCell = type { ptr }
%struct.String = type { i32, ptr }
%struct.FormData_pg_attribute = type { i32, %struct.nameData, i32, i16, i16, i32, i16, i8, i8, i8, i8, i8, i8, i8, i8, i8, i8, i8, i16, i32 }
%struct.TupleDescData = type { i32, i32, i32, i32, ptr, [0 x %struct.CompactAttribute] }
%struct.CompactAttribute = type { i32, i16, i8, i8, i8, i8, i8, i8, i8 }

@.str.1 = private unnamed_addr constant [17 x i8] c"pg_publication.c\00", align 1
@.str.2 = private unnamed_addr constant [44 x i8] c"column \22%s\22 of relation \22%s\22 does not exist\00", align 1
@__func__.pub_collist_validate = private unnamed_addr constant [21 x i8] c"pub_collist_validate\00", align 1
@.str.3 = private unnamed_addr constant [57 x i8] c"cannot use system column \22%s\22 in publication column list\00", align 1
@.str.4 = private unnamed_addr constant [68 x i8] c"cannot use virtual generated column \22%s\22 in publication column list\00", align 1
@.str.5 = private unnamed_addr constant [49 x i8] c"duplicate column \22%s\22 in publication column list\00", align 1

; Function Attrs: inlinehint nounwind uwtable
define internal ptr @TupleDescAttr(ptr noundef %0, i32 noundef %1) #2 {
  %3 = alloca ptr, align 8
  %4 = alloca i32, align 4
  %5 = alloca ptr, align 8
  store ptr %0, ptr %3, align 8
  store i32 %1, ptr %4, align 4
  call void @llvm.lifetime.start.p0(i64 8, ptr %5) #7
  %6 = load ptr, ptr %3, align 8
  %7 = load ptr, ptr %3, align 8
  %8 = getelementptr inbounds nuw %struct.TupleDescData, ptr %7, i32 0, i32 0
  %9 = load i32, ptr %8, align 8
  %10 = sext i32 %9 to i64
  %11 = mul i64 %10, 16
  %12 = add i64 24, %11
  %13 = getelementptr inbounds nuw i8, ptr %6, i64 %12
  store ptr %13, ptr %5, align 8
  %14 = load ptr, ptr %5, align 8
  %15 = load i32, ptr %4, align 4
  %16 = sext i32 %15 to i64
  %17 = getelementptr inbounds %struct.FormData_pg_attribute, ptr %14, i64 %16
  call void @llvm.lifetime.end.p0(i64 8, ptr %5) #7
  ret ptr %17
}

; Function Attrs: nounwind uwtable
define dso_local ptr @pub_collist_validate(ptr noundef %0, ptr noundef %1) #0 {
  %3 = alloca ptr, align 8
  %4 = alloca ptr, align 8
  %5 = alloca ptr, align 8
  %6 = alloca ptr, align 8
  %7 = alloca ptr, align 8
  %8 = alloca %struct.ForEachState, align 8
  %9 = alloca ptr, align 8
  %10 = alloca i16, align 2
  store ptr %0, ptr %3, align 8
  store ptr %1, ptr %4, align 8
  call void @llvm.lifetime.start.p0(i64 8, ptr %5) #7
  store ptr null, ptr %5, align 8
  call void @llvm.lifetime.start.p0(i64 8, ptr %6) #7
  call void @llvm.lifetime.start.p0(i64 8, ptr %7) #7
  %11 = load ptr, ptr %3, align 8
  %12 = getelementptr inbounds nuw %struct.RelationData, ptr %11, i32 0, i32 14
  %13 = load ptr, ptr %12, align 8
  store ptr %13, ptr %7, align 8
  call void @llvm.lifetime.start.p0(i64 16, ptr %8) #7
  %14 = getelementptr inbounds nuw %struct.ForEachState, ptr %8, i32 0, i32 0
  %15 = load ptr, ptr %4, align 8
  store ptr %15, ptr %14, align 8
  %16 = getelementptr inbounds nuw %struct.ForEachState, ptr %8, i32 0, i32 1
  store i32 0, ptr %16, align 8
  %17 = getelementptr i8, ptr %8, i64 12
  call void @llvm.memset.p0.i64(ptr align 4 %17, i8 0, i64 4, i1 false)
  br label %18

18:                                               ; preds = %139, %2
  %19 = getelementptr inbounds nuw %struct.ForEachState, ptr %8, i32 0, i32 0
  %20 = load ptr, ptr %19, align 8
  %21 = icmp ne ptr %20, null
  br i1 %21, label %22, label %39

22:                                               ; preds = %18
  %23 = getelementptr inbounds nuw %struct.ForEachState, ptr %8, i32 0, i32 1
  %24 = load i32, ptr %23, align 8
  %25 = getelementptr inbounds nuw %struct.ForEachState, ptr %8, i32 0, i32 0
  %26 = load ptr, ptr %25, align 8
  %27 = getelementptr inbounds nuw %struct.List, ptr %26, i32 0, i32 1
  %28 = load i32, ptr %27, align 4
  %29 = icmp slt i32 %24, %28
  br i1 %29, label %30, label %39

30:                                               ; preds = %22
  %31 = getelementptr inbounds nuw %struct.ForEachState, ptr %8, i32 0, i32 0
  %32 = load ptr, ptr %31, align 8
  %33 = getelementptr inbounds nuw %struct.List, ptr %32, i32 0, i32 3
  %34 = load ptr, ptr %33, align 8
  %35 = getelementptr inbounds nuw %struct.ForEachState, ptr %8, i32 0, i32 1
  %36 = load i32, ptr %35, align 8
  %37 = sext i32 %36 to i64
  %38 = getelementptr inbounds %union.ListCell, ptr %34, i64 %37
  store ptr %38, ptr %6, align 8
  br label %40

39:                                               ; preds = %22, %18
  store ptr null, ptr %6, align 8
  br label %40

40:                                               ; preds = %39, %30
  %41 = phi i32 [ 1, %30 ], [ 0, %39 ]
  %42 = icmp ne i32 %41, 0
  br i1 %42, label %44, label %43

43:                                               ; preds = %40
  call void @llvm.lifetime.end.p0(i64 16, ptr %8) #7
  br label %143

44:                                               ; preds = %40
  call void @llvm.lifetime.start.p0(i64 8, ptr %9) #7
  %45 = load ptr, ptr %6, align 8
  %46 = load ptr, ptr %45, align 8
  %47 = getelementptr inbounds nuw %struct.String, ptr %46, i32 0, i32 1
  %48 = load ptr, ptr %47, align 8
  store ptr %48, ptr %9, align 8
  call void @llvm.lifetime.start.p0(i64 2, ptr %10) #7
  %49 = load ptr, ptr %3, align 8
  %50 = getelementptr inbounds nuw %struct.RelationData, ptr %49, i32 0, i32 15
  %51 = load i32, ptr %50, align 8
  %52 = load ptr, ptr %9, align 8
  %53 = call signext i16 @get_attnum(i32 noundef %51, ptr noundef %52)
  store i16 %53, ptr %10, align 2
  %54 = load i16, ptr %10, align 2
  %55 = sext i16 %54 to i32
  %56 = icmp eq i32 %55, 0
  br i1 %56, label %57, label %76

57:                                               ; preds = %44
  br label %58

58:                                               ; preds = %57
  br i1 true, label %59, label %61

59:                                               ; preds = %58
  %60 = call zeroext i1 @errstart_cold(i32 noundef 21, ptr noundef null) #8
  br i1 %60, label %63, label %73

61:                                               ; preds = %58
  %62 = call zeroext i1 @errstart(i32 noundef 21, ptr noundef null)
  br i1 %62, label %63, label %73

63:                                               ; preds = %61, %59
  %64 = call i32 @errcode(i32 noundef 50360452)
  %65 = load ptr, ptr %9, align 8
  %66 = load ptr, ptr %3, align 8
  %67 = getelementptr inbounds nuw %struct.RelationData, ptr %66, i32 0, i32 13
  %68 = load ptr, ptr %67, align 8
  %69 = getelementptr inbounds nuw %struct.FormData_pg_class, ptr %68, i32 0, i32 1
  %70 = getelementptr inbounds nuw %struct.nameData, ptr %69, i32 0, i32 0
  %71 = getelementptr inbounds [64 x i8], ptr %70, i64 0, i64 0
  %72 = call i32 (ptr, ...) @errmsg(ptr noundef @.str.2, ptr noundef %65, ptr noundef %71)
  call void @errfinish(ptr noundef @.str.1, i32 noundef 571, ptr noundef @__func__.pub_collist_validate)
  br label %73

73:                                               ; preds = %63, %61, %59
  unreachable

74:                                               ; No predecessors!
  br label %75

75:                                               ; preds = %74
  br label %76

76:                                               ; preds = %75, %44
  %77 = load i16, ptr %10, align 2
  %78 = sext i16 %77 to i32
  %79 = icmp sgt i32 %78, 0
  br i1 %79, label %93, label %80

80:                                               ; preds = %76
  br label %81

81:                                               ; preds = %80
  br i1 true, label %82, label %84

82:                                               ; preds = %81
  %83 = call zeroext i1 @errstart_cold(i32 noundef 21, ptr noundef null) #8
  br i1 %83, label %86, label %90

84:                                               ; preds = %81
  %85 = call zeroext i1 @errstart(i32 noundef 21, ptr noundef null)
  br i1 %85, label %86, label %90

86:                                               ; preds = %84, %82
  %87 = call i32 @errcode(i32 noundef 393348)
  %88 = load ptr, ptr %9, align 8
  %89 = call i32 (ptr, ...) @errmsg(ptr noundef @.str.3, ptr noundef %88)
  call void @errfinish(ptr noundef @.str.1, i32 noundef 577, ptr noundef @__func__.pub_collist_validate)
  br label %90

90:                                               ; preds = %86, %84, %82
  unreachable

91:                                               ; No predecessors!
  br label %92

92:                                               ; preds = %91
  br label %93

93:                                               ; preds = %92, %76
  %94 = load ptr, ptr %7, align 8
  %95 = load i16, ptr %10, align 2
  %96 = sext i16 %95 to i32
  %97 = sub i32 %96, 1
  %98 = call ptr @TupleDescAttr(ptr noundef %94, i32 noundef %97)
  %99 = getelementptr inbounds nuw %struct.FormData_pg_attribute, ptr %98, i32 0, i32 15
  %100 = load i8, ptr %99, align 2
  %101 = sext i8 %100 to i32
  %102 = icmp eq i32 %101, 118
  br i1 %102, label %103, label %116

103:                                              ; preds = %93
  br label %104

104:                                              ; preds = %103
  br i1 true, label %105, label %107

105:                                              ; preds = %104
  %106 = call zeroext i1 @errstart_cold(i32 noundef 21, ptr noundef null) #8
  br i1 %106, label %109, label %113

107:                                              ; preds = %104
  %108 = call zeroext i1 @errstart(i32 noundef 21, ptr noundef null)
  br i1 %108, label %109, label %113

109:                                              ; preds = %107, %105
  %110 = call i32 @errcode(i32 noundef 393348)
  %111 = load ptr, ptr %9, align 8
  %112 = call i32 (ptr, ...) @errmsg(ptr noundef @.str.4, ptr noundef %111)
  call void @errfinish(ptr noundef @.str.1, i32 noundef 583, ptr noundef @__func__.pub_collist_validate)
  br label %113

113:                                              ; preds = %109, %107, %105
  unreachable

114:                                              ; No predecessors!
  br label %115

115:                                              ; preds = %114
  br label %116

116:                                              ; preds = %115, %93
  %117 = load i16, ptr %10, align 2
  %118 = sext i16 %117 to i32
  %119 = load ptr, ptr %5, align 8
  %120 = call zeroext i1 @bms_is_member(i32 noundef %118, ptr noundef %119)
  br i1 %120, label %121, label %134

121:                                              ; preds = %116
  br label %122

122:                                              ; preds = %121
  br i1 true, label %123, label %125

123:                                              ; preds = %122
  %124 = call zeroext i1 @errstart_cold(i32 noundef 21, ptr noundef null) #8
  br i1 %124, label %127, label %131

125:                                              ; preds = %122
  %126 = call zeroext i1 @errstart(i32 noundef 21, ptr noundef null)
  br i1 %126, label %127, label %131

127:                                              ; preds = %125, %123
  %128 = call i32 @errcode(i32 noundef 290948)
  %129 = load ptr, ptr %9, align 8
  %130 = call i32 (ptr, ...) @errmsg(ptr noundef @.str.5, ptr noundef %129)
  call void @errfinish(ptr noundef @.str.1, i32 noundef 589, ptr noundef @__func__.pub_collist_validate)
  br label %131

131:                                              ; preds = %127, %125, %123
  unreachable

132:                                              ; No predecessors!
  br label %133

133:                                              ; preds = %132
  br label %134

134:                                              ; preds = %133, %116
  %135 = load ptr, ptr %5, align 8
  %136 = load i16, ptr %10, align 2
  %137 = sext i16 %136 to i32
  %138 = call ptr @bms_add_member(ptr noundef %135, i32 noundef %137)
  store ptr %138, ptr %5, align 8
  call void @llvm.lifetime.end.p0(i64 2, ptr %10) #7
  call void @llvm.lifetime.end.p0(i64 8, ptr %9) #7
  br label %139

139:                                              ; preds = %134
  %140 = getelementptr inbounds nuw %struct.ForEachState, ptr %8, i32 0, i32 1
  %141 = load i32, ptr %140, align 8
  %142 = add i32 %141, 1
  store i32 %142, ptr %140, align 8
  br label %18, !llvm.loop !13

143:                                              ; preds = %43
  %144 = load ptr, ptr %5, align 8
  call void @llvm.lifetime.end.p0(i64 8, ptr %7) #7
  call void @llvm.lifetime.end.p0(i64 8, ptr %6) #7
  call void @llvm.lifetime.end.p0(i64 8, ptr %5) #7
  ret ptr %144
}