; Function Attrs: nounwind uwtable
define dso_local ptr @pub_collist_validate(ptr noundef readonly captures(none) %0, ptr noundef readonly captures(address_is_null) %1) local_unnamed_addr #0 {
  %3 = getelementptr inbounds nuw i8, ptr %0, i64 64
  %4 = load ptr, ptr %3, align 8
  %.not = icmp eq ptr %1, null
  %invariant.gep = getelementptr i8, ptr %4, i64 24
  br i1 %.not, label %._crit_edge, label %.lr.ph

.lr.ph:                                           ; preds = %2
  %5 = getelementptr inbounds nuw i8, ptr %1, i64 4
  %6 = getelementptr inbounds nuw i8, ptr %1, i64 16
  %7 = getelementptr inbounds nuw i8, ptr %0, i64 72
  %8 = load i32, ptr %5, align 4
  %9 = icmp sgt i32 %8, 0
  br i1 %9, label %.lr.ph52, label %._crit_edge

._crit_edge:                                      ; preds = %47, %.lr.ph, %2
  %.0.lcssa = phi ptr [ null, %2 ], [ null, %.lr.ph ], [ %48, %47 ]
  ret ptr %.0.lcssa

.lr.ph52:                                         ; preds = %.lr.ph, %47
  %indvars.iv = phi i64 [ %indvars.iv.next, %47 ], [ 0, %.lr.ph ]
  %.03650 = phi ptr [ %48, %47 ], [ null, %.lr.ph ]
  %10 = load ptr, ptr %6, align 8
  %11 = getelementptr inbounds nuw %union.ListCell, ptr %10, i64 %indvars.iv
  %12 = load ptr, ptr %11, align 8
  %13 = getelementptr inbounds nuw i8, ptr %12, i64 8
  %14 = load ptr, ptr %13, align 8
  %15 = load i32, ptr %7, align 8
  %16 = tail call signext i16 @get_attnum(i32 noundef %15, ptr noundef %14) #6
  %17 = sext i16 %16 to i32
  %18 = icmp eq i16 %16, 0
  br i1 %18, label %.split, label %25

.split:                                           ; preds = %.lr.ph52
  %19 = tail call zeroext i1 @errstart_cold(i32 noundef 21, ptr noundef null) #7
  tail call void @llvm.assume(i1 %19)
  %20 = tail call i32 @errcode(i32 noundef 50360452) #6
  %21 = getelementptr inbounds nuw i8, ptr %0, i64 56
  %22 = load ptr, ptr %21, align 8
  %23 = getelementptr inbounds nuw i8, ptr %22, i64 4
  %24 = tail call i32 (ptr, ...) @errmsg(ptr noundef nonnull @.str.2, ptr noundef %14, ptr noundef nonnull %23) #6
  tail call void @errfinish(ptr noundef nonnull @.str.1, i32 noundef 571, ptr noundef nonnull @__func__.pub_collist_validate) #6
  unreachable

25:                                               ; preds = %.lr.ph52
  %26 = icmp sgt i16 %16, 0
  br i1 %26, label %30, label %.split41

.split41:                                         ; preds = %25
  %27 = tail call zeroext i1 @errstart_cold(i32 noundef 21, ptr noundef null) #7
  tail call void @llvm.assume(i1 %27)
  %28 = tail call i32 @errcode(i32 noundef 393348) #6
  %29 = tail call i32 (ptr, ...) @errmsg(ptr noundef nonnull @.str.3, ptr noundef %14) #6
  tail call void @errfinish(ptr noundef nonnull @.str.1, i32 noundef 577, ptr noundef nonnull @__func__.pub_collist_validate) #6
  unreachable

30:                                               ; preds = %25
  %31 = load i32, ptr %4, align 8
  %32 = sext i32 %31 to i64
  %33 = shl nsw i64 %32, 4
  %gep = getelementptr i8, ptr %invariant.gep, i64 %33
  %34 = zext nneg i16 %16 to i64
  %35 = getelementptr %struct.FormData_pg_attribute, ptr %gep, i64 %34
  %36 = getelementptr i8, ptr %35, i64 -10
  %37 = load i8, ptr %36, align 2
  %38 = icmp eq i8 %37, 118
  br i1 %38, label %.split44, label %42

.split44:                                         ; preds = %30
  %39 = tail call zeroext i1 @errstart_cold(i32 noundef 21, ptr noundef null) #7
  tail call void @llvm.assume(i1 %39)
  %40 = tail call i32 @errcode(i32 noundef 393348) #6
  %41 = tail call i32 (ptr, ...) @errmsg(ptr noundef nonnull @.str.4, ptr noundef %14) #6
  tail call void @errfinish(ptr noundef nonnull @.str.1, i32 noundef 583, ptr noundef nonnull @__func__.pub_collist_validate) #6
  unreachable

42:                                               ; preds = %30
  %43 = tail call zeroext i1 @bms_is_member(i32 noundef %17, ptr noundef %.03650) #6
  br i1 %43, label %.split47, label %47

.split47:                                         ; preds = %42
  %44 = tail call zeroext i1 @errstart_cold(i32 noundef 21, ptr noundef null) #7
  tail call void @llvm.assume(i1 %44)
  %45 = tail call i32 @errcode(i32 noundef 290948) #6
  %46 = tail call i32 (ptr, ...) @errmsg(ptr noundef nonnull @.str.5, ptr noundef %14) #6
  tail call void @errfinish(ptr noundef nonnull @.str.1, i32 noundef 589, ptr noundef nonnull @__func__.pub_collist_validate) #6
  unreachable

47:                                               ; preds = %42
  %48 = tail call ptr @bms_add_member(ptr noundef %.03650, i32 noundef %17) #6
  %indvars.iv.next = add nuw nsw i64 %indvars.iv, 1
  %49 = load i32, ptr %5, align 4
  %50 = sext i32 %49 to i64
  %51 = icmp slt i64 %indvars.iv.next, %50
  br i1 %51, label %.lr.ph52, label %._crit_edge
}